; Function Attrs: mustprogress nounwind uwtable
define hidden noundef ptr @_ZN5ZPage15split_committedEv(ptr noundef nonnull align 8 dereferenceable(192) %0) local_unnamed_addr #0 align 2 {
  %2 = alloca %class.ZPhysicalMemory, align 8
  %3 = getelementptr inbounds i8, ptr %0, i64 160
  call void @_ZN15ZPhysicalMemory15split_committedEv(ptr dead_on_unwind nonnull writable sret(%class.ZPhysicalMemory) align 8 %2, ptr noundef nonnull align 8 dereferenceable(16) %3) #13
  %4 = load i32, ptr %2, align 8
  %5 = icmp eq i32 %4, 0
  br i1 %5, label %12, label %6

6:                                                ; preds = %1
  %7 = call noundef i64 @_ZNK15ZPhysicalMemory4sizeEv(ptr noundef nonnull align 8 dereferenceable(16) %2) #13
  %8 = icmp eq i64 %7, 2097152
  %9 = load i64, ptr @ZPageSizeMedium, align 8
  %10 = icmp eq i64 %9, %7
  %..i = select i1 %10, i8 1, i8 2
  %.0.i = select i1 %8, i8 0, i8 %..i
  %11 = call noundef ptr @_ZN5ZPage15split_with_pmemE9ZPageTypeRK15ZPhysicalMemory(ptr noundef nonnull align 8 dereferenceable(192) %0, i8 noundef zeroext %.0.i, ptr noundef nonnull align 8 dereferenceable(16) %2)
  br label %12

12:                                               ; preds = %1, %6
  %.0 = phi ptr [ %11, %6 ], [ null, %1 ]
  store i32 0, ptr %2, align 8
  %13 = getelementptr inbounds i8, ptr %2, i64 4
  %14 = load i32, ptr %13, align 4
  %15 = icmp eq i32 %14, 0
  br i1 %15, label %_ZN15ZPhysicalMemoryD2Ev.exit, label %.loopexit.i.i.i.i

.loopexit.i.i.i.i:                                ; preds = %12
  %16 = getelementptr inbounds i8, ptr %2, i64 8
  %17 = load ptr, ptr %16, align 8
  store i32 0, ptr %13, align 4
  %.not.i.i.i.i = icmp eq ptr %17, null
  br i1 %.not.i.i.i.i, label %_ZN15ZPhysicalMemoryD2Ev.exit, label %.loopexit.thread.i.i.i.i

.loopexit.thread.i.i.i.i:                         ; preds = %.loopexit.i.i.i.i
  call void @_ZN27GrowableArrayCHeapAllocator10deallocateEPv(ptr noundef nonnull %17) #13
  br label %_ZN15ZPhysicalMemoryD2Ev.exit

_ZN15ZPhysicalMemoryD2Ev.exit:                    ; preds = %.loopexit.i.i.i.i, %.loopexit.thread.i.i.i.i, %12
  ret ptr %.0
}